target datalayout = "e-m:e-p270:32:32-p271:32:32-p272:64:64-i64:64-i128:128-f80:128-n8:16:32:64-S128"
target triple = "x86_64-pc-linux-gnu"

%struct.CCFifo = type { ptr, ptr, %struct.AVRational, i32, i32, i32, i32, i32, ptr }
%struct.AVRational = type { i32, i32 }

; Function Attrs: inlinehint nounwind uwtable
define internal i32 @ff_ccfifo_getoutputsize(ptr noundef %0) #5 {
  %2 = alloca ptr, align 8
  store ptr %0, ptr %2, align 8, !tbaa !4
  %3 = load ptr, ptr %2, align 8, !tbaa !4
  %4 = getelementptr inbounds nuw %struct.CCFifo, ptr %3, i32 0, i32 3
  %5 = load i32, ptr %4, align 8, !tbaa !25
  %6 = mul nsw i32 %5, 3
  ret i32 %6
}

; Function Attrs: nounwind uwtable
define i32 @ff_ccfifo_injectbytes(ptr noundef %0, ptr noundef %1, i64 noundef %2) #0 {
  %4 = alloca i32, align 4
  %5 = alloca ptr, align 8
  %6 = alloca ptr, align 8
  %7 = alloca i64, align 8
  %8 = alloca i32, align 4
  %9 = alloca i32, align 4
  %10 = alloca i32, align 4
  %11 = alloca i32, align 4
  store ptr %0, ptr %5, align 8, !tbaa !4
  store ptr %1, ptr %6, align 8, !tbaa !31
  store i64 %2, ptr %7, align 8, !tbaa !33
  call void @llvm.lifetime.start.p0(i64 4, ptr %8) #6
  store i32 0, ptr %8, align 4, !tbaa !16
  call void @llvm.lifetime.start.p0(i64 4, ptr %9) #6
  store i32 0, ptr %9, align 4, !tbaa !16
  call void @llvm.lifetime.start.p0(i64 4, ptr %10) #6
  store i32 0, ptr %10, align 4, !tbaa !16
  %12 = load ptr, ptr %5, align 8, !tbaa !4
  %13 = getelementptr inbounds nuw %struct.CCFifo, ptr %12, i32 0, i32 6
  %14 = load i32, ptr %13, align 4, !tbaa !30
  %15 = icmp ne i32 %14, 0
  br i1 %15, label %16, label %17

16:                                               ; preds = %3
  store i32 0, ptr %4, align 4
  store i32 1, ptr %11, align 4
  br label %120

17:                                               ; preds = %3
  %18 = load i64, ptr %7, align 8, !tbaa !33
  %19 = load ptr, ptr %5, align 8, !tbaa !4
  %20 = call i32 @ff_ccfifo_getoutputsize(ptr noundef %19)
  %21 = sext i32 %20 to i64
  %22 = icmp ult i64 %18, %21
  br i1 %22, label %23, label %24

23:                                               ; preds = %17
  store i32 -22, ptr %4, align 4
  store i32 1, ptr %11, align 4
  br label %120

24:                                               ; preds = %17
  %25 = load ptr, ptr %5, align 8, !tbaa !4
  %26 = getelementptr inbounds nuw %struct.CCFifo, ptr %25, i32 0, i32 4
  %27 = load i32, ptr %26, align 4, !tbaa !27
  %28 = sext i32 %27 to i64
  %29 = load ptr, ptr %5, align 8, !tbaa !4
  %30 = getelementptr inbounds nuw %struct.CCFifo, ptr %29, i32 0, i32 0
  %31 = load ptr, ptr %30, align 8, !tbaa !18
  %32 = call i64 @av_fifo_can_read(ptr noundef %31)
  %33 = icmp ule i64 %28, %32
  br i1 %33, label %34, label %38

34:                                               ; preds = %24
  %35 = load ptr, ptr %5, align 8, !tbaa !4
  %36 = getelementptr inbounds nuw %struct.CCFifo, ptr %35, i32 0, i32 4
  %37 = load i32, ptr %36, align 4, !tbaa !27
  store i32 %37, ptr %8, align 4, !tbaa !16
  br label %44

38:                                               ; preds = %24
  %39 = load ptr, ptr %5, align 8, !tbaa !4
  %40 = getelementptr inbounds nuw %struct.CCFifo, ptr %39, i32 0, i32 0
  %41 = load ptr, ptr %40, align 8, !tbaa !18
  %42 = call i64 @av_fifo_can_read(ptr noundef %41)
  %43 = trunc i64 %42 to i32
  store i32 %43, ptr %8, align 4, !tbaa !16
  br label %44

44:                                               ; preds = %38, %34
  %45 = load ptr, ptr %5, align 8, !tbaa !4
  %46 = getelementptr inbounds nuw %struct.CCFifo, ptr %45, i32 0, i32 0
  %47 = load ptr, ptr %46, align 8, !tbaa !18
  %48 = load ptr, ptr %6, align 8, !tbaa !31
  %49 = load i32, ptr %8, align 4, !tbaa !16
  %50 = sext i32 %49 to i64
  %51 = call i32 @av_fifo_read(ptr noundef %47, ptr noundef %48, i64 noundef %50)
  %52 = load i32, ptr %8, align 4, !tbaa !16
  %53 = load i32, ptr %10, align 4, !tbaa !16
  %54 = add nsw i32 %53, %52
  store i32 %54, ptr %10, align 4, !tbaa !16
  %55 = load ptr, ptr %5, align 8, !tbaa !4
  %56 = getelementptr inbounds nuw %struct.CCFifo, ptr %55, i32 0, i32 3
  %57 = load i32, ptr %56, align 8, !tbaa !25
  %58 = load i32, ptr %10, align 4, !tbaa !16
  %59 = sub nsw i32 %57, %58
  %60 = sext i32 %59 to i64
  %61 = load ptr, ptr %5, align 8, !tbaa !4
  %62 = getelementptr inbounds nuw %struct.CCFifo, ptr %61, i32 0, i32 1
  %63 = load ptr, ptr %62, align 8, !tbaa !17
  %64 = call i64 @av_fifo_can_read(ptr noundef %63)
  %65 = icmp ule i64 %60, %64
  br i1 %65, label %66, label %72

66:                                               ; preds = %44
  %67 = load ptr, ptr %5, align 8, !tbaa !4
  %68 = getelementptr inbounds nuw %struct.CCFifo, ptr %67, i32 0, i32 3
  %69 = load i32, ptr %68, align 8, !tbaa !25
  %70 = load i32, ptr %10, align 4, !tbaa !16
  %71 = sub nsw i32 %69, %70
  store i32 %71, ptr %9, align 4, !tbaa !16
  br label %78

72:                                               ; preds = %44
  %73 = load ptr, ptr %5, align 8, !tbaa !4
  %74 = getelementptr inbounds nuw %struct.CCFifo, ptr %73, i32 0, i32 1
  %75 = load ptr, ptr %74, align 8, !tbaa !17
  %76 = call i64 @av_fifo_can_read(ptr noundef %75)
  %77 = trunc i64 %76 to i32
  store i32 %77, ptr %9, align 4, !tbaa !16
  br label %78

78:                                               ; preds = %72, %66
  %79 = load ptr, ptr %5, align 8, !tbaa !4
  %80 = getelementptr inbounds nuw %struct.CCFifo, ptr %79, i32 0, i32 1
  %81 = load ptr, ptr %80, align 8, !tbaa !17
  %82 = load ptr, ptr %6, align 8, !tbaa !31
  %83 = load i32, ptr %10, align 4, !tbaa !16
  %84 = mul nsw i32 %83, 3
  %85 = sext i32 %84 to i64
  %86 = getelementptr inbounds i8, ptr %82, i64 %85
  %87 = load i32, ptr %9, align 4, !tbaa !16
  %88 = sext i32 %87 to i64
  %89 = call i32 @av_fifo_read(ptr noundef %81, ptr noundef %86, i64 noundef %88)
  %90 = load i32, ptr %9, align 4, !tbaa !16
  %91 = load i32, ptr %10, align 4, !tbaa !16
  %92 = add nsw i32 %91, %90
  store i32 %92, ptr %10, align 4, !tbaa !16
  br label %93

93:                                               ; preds = %99, %78
  %94 = load i32, ptr %10, align 4, !tbaa !16
  %95 = load ptr, ptr %5, align 8, !tbaa !4
  %96 = getelementptr inbounds nuw %struct.CCFifo, ptr %95, i32 0, i32 3
  %97 = load i32, ptr %96, align 8, !tbaa !25
  %98 = icmp slt i32 %94, %97
  br i1 %98, label %99, label %119

99:                                               ; preds = %93
  %100 = load ptr, ptr %6, align 8, !tbaa !31
  %101 = load i32, ptr %10, align 4, !tbaa !16
  %102 = mul nsw i32 %101, 3
  %103 = sext i32 %102 to i64
  %104 = getelementptr inbounds i8, ptr %100, i64 %103
  store i8 -6, ptr %104, align 1, !tbaa !35
  %105 = load ptr, ptr %6, align 8, !tbaa !31
  %106 = load i32, ptr %10, align 4, !tbaa !16
  %107 = mul nsw i32 %106, 3
  %108 = add nsw i32 %107, 1
  %109 = sext i32 %108 to i64
  %110 = getelementptr inbounds i8, ptr %105, i64 %109
  store i8 0, ptr %110, align 1, !tbaa !35
  %111 = load ptr, ptr %6, align 8, !tbaa !31
  %112 = load i32, ptr %10, align 4, !tbaa !16
  %113 = mul nsw i32 %112, 3
  %114 = add nsw i32 %113, 2
  %115 = sext i32 %114 to i64
  %116 = getelementptr inbounds i8, ptr %111, i64 %115
  store i8 0, ptr %116, align 1, !tbaa !35
  %117 = load i32, ptr %10, align 4, !tbaa !16
  %118 = add nsw i32 %117, 1
  store i32 %118, ptr %10, align 4, !tbaa !16
  br label %93, !llvm.loop !36

119:                                              ; preds = %93
  store i32 0, ptr %4, align 4
  store i32 1, ptr %11, align 4
  br label %120

120:                                              ; preds = %119, %23, %16
  call void @llvm.lifetime.end.p0(i64 4, ptr %10) #6
  call void @llvm.lifetime.end.p0(i64 4, ptr %9) #6
  call void @llvm.lifetime.end.p0(i64 4, ptr %8) #6
  %121 = load i32, ptr %4, align 4
  ret i32 %121
}