; Function Attrs: nounwind uwtable
define range(i32 -22, 1) i32 @ff_ccfifo_injectbytes(ptr noundef readonly captures(none) %0, ptr noundef %1, i64 noundef %2) local_unnamed_addr #0 {
  %4 = getelementptr inbounds nuw i8, ptr %0, i64 36
  %5 = load i32, ptr %4, align 4, !tbaa !24
  %.not = icmp eq i32 %5, 0
  br i1 %.not, label %6, label %.loopexit

6:                                                ; preds = %3
  %7 = getelementptr i8, ptr %0, i64 24
  %.val = load i32, ptr %7, align 8, !tbaa !19
  %8 = mul nsw i32 %.val, 3
  %9 = sext i32 %8 to i64
  %10 = icmp ult i64 %2, %9
  br i1 %10, label %.loopexit, label %11

11:                                               ; preds = %6
  %12 = getelementptr inbounds nuw i8, ptr %0, i64 28
  %13 = load i32, ptr %12, align 4, !tbaa !21
  %14 = sext i32 %13 to i64
  %15 = load ptr, ptr %0, align 8, !tbaa !14
  %16 = tail call i64 @av_fifo_can_read(ptr noundef %15) #3
  %.not36 = icmp ult i64 %16, %14
  br i1 %.not36, label %19, label %17

17:                                               ; preds = %11
  %18 = load i32, ptr %12, align 4, !tbaa !21
  br label %23

19:                                               ; preds = %11
  %20 = load ptr, ptr %0, align 8, !tbaa !14
  %21 = tail call i64 @av_fifo_can_read(ptr noundef %20) #3
  %22 = trunc i64 %21 to i32
  br label %23

23:                                               ; preds = %19, %17
  %.034 = phi i32 [ %18, %17 ], [ %22, %19 ]
  %24 = load ptr, ptr %0, align 8, !tbaa !14
  %25 = sext i32 %.034 to i64
  %26 = tail call i32 @av_fifo_read(ptr noundef %24, ptr noundef %1, i64 noundef %25) #3
  %27 = load i32, ptr %7, align 8, !tbaa !19
  %28 = sub nsw i32 %27, %.034
  %29 = sext i32 %28 to i64
  %30 = getelementptr inbounds nuw i8, ptr %0, i64 8
  %31 = load ptr, ptr %30, align 8, !tbaa !13
  %32 = tail call i64 @av_fifo_can_read(ptr noundef %31) #3
  %.not37 = icmp ult i64 %32, %29
  br i1 %.not37, label %36, label %33

33:                                               ; preds = %23
  %34 = load i32, ptr %7, align 8, !tbaa !19
  %35 = sub nsw i32 %34, %.034
  br label %40

36:                                               ; preds = %23
  %37 = load ptr, ptr %30, align 8, !tbaa !13
  %38 = tail call i64 @av_fifo_can_read(ptr noundef %37) #3
  %39 = trunc i64 %38 to i32
  br label %40

40:                                               ; preds = %36, %33
  %.033 = phi i32 [ %35, %33 ], [ %39, %36 ]
  %41 = load ptr, ptr %30, align 8, !tbaa !13
  %42 = mul nsw i32 %.034, 3
  %43 = sext i32 %42 to i64
  %44 = getelementptr inbounds i8, ptr %1, i64 %43
  %45 = sext i32 %.033 to i64
  %46 = tail call i32 @av_fifo_read(ptr noundef %41, ptr noundef %44, i64 noundef %45) #3
  %47 = add nsw i32 %.033, %.034
  %48 = load i32, ptr %7, align 8, !tbaa !19
  %49 = icmp slt i32 %47, %48
  br i1 %49, label %.lr.ph.preheader, label %.loopexit

.lr.ph.preheader:                                 ; preds = %40
  %50 = sext i32 %47 to i64
  br label %.lr.ph

.lr.ph:                                           ; preds = %.lr.ph.preheader, %.lr.ph
  %indvars.iv = phi i64 [ %50, %.lr.ph.preheader ], [ %indvars.iv.next, %.lr.ph ]
  %51 = mul nsw i64 %indvars.iv, 3
  %52 = getelementptr inbounds i8, ptr %1, i64 %51
  store i8 -6, ptr %52, align 1, !tbaa !25
  %53 = getelementptr i8, ptr %52, i64 1
  store i8 0, ptr %53, align 1, !tbaa !25
  %54 = getelementptr i8, ptr %52, i64 2
  store i8 0, ptr %54, align 1, !tbaa !25
  %indvars.iv.next = add nsw i64 %indvars.iv, 1
  %55 = load i32, ptr %7, align 8, !tbaa !19
  %56 = sext i32 %55 to i64
  %57 = icmp slt i64 %indvars.iv.next, %56
  br i1 %57, label %.lr.ph, label %.loopexit, !llvm.loop !26

.loopexit:                                        ; preds = %.lr.ph, %40, %6, %3
  %.035 = phi i32 [ 0, %3 ], [ -22, %6 ], [ 0, %40 ], [ 0, %.lr.ph ]
  ret i32 %.035
}